; Function Attrs: mustprogress uwtable
define hidden void @_ZN4cvc58internal6theory11quantifiers11ModelEngineC2ERNS0_3EnvERNS2_16QuantifiersStateERNS2_27QuantifiersInferenceManagerERNS2_19QuantifiersRegistryERNS2_12TermRegistryEPNS2_13QModelBuilderE(ptr noundef nonnull align 8 dereferenceable(128) %0, ptr noundef nonnull align 8 dereferenceable(696) %1, ptr noundef nonnull align 8 dereferenceable(376) %2, ptr noundef nonnull align 8 dereferenceable(384) %3, ptr noundef nonnull align 8 dereferenceable(568) %4, ptr noundef nonnull align 8 dereferenceable(104) %5, ptr noundef %6) unnamed_addr #3 align 2 {
  tail call void @_ZN4cvc58internal6theory11quantifiers17QuantifiersModuleC2ERNS0_3EnvERNS2_16QuantifiersStateERNS2_27QuantifiersInferenceManagerERNS2_19QuantifiersRegistryERNS2_12TermRegistryE(ptr noundef nonnull align 8 dereferenceable(48) %0, ptr noundef nonnull align 8 dereferenceable(696) %1, ptr noundef nonnull align 8 dereferenceable(376) %2, ptr noundef nonnull align 8 dereferenceable(384) %3, ptr noundef nonnull align 8 dereferenceable(568) %4, ptr noundef nonnull align 8 dereferenceable(104) %5)
  store ptr getelementptr inbounds nuw inrange(-16, 120) (i8, ptr @_ZTVN4cvc58internal6theory11quantifiers11ModelEngineE, i64 16), ptr %0, align 8, !tbaa !3
  %8 = getelementptr inbounds nuw i8, ptr %0, i64 48
  store i8 1, ptr %8, align 8, !tbaa !6
  %9 = getelementptr inbounds nuw i8, ptr %0, i64 52
  store i32 0, ptr %9, align 4, !tbaa !28
  %10 = getelementptr inbounds nuw i8, ptr %0, i64 56
  store i32 0, ptr %10, align 8, !tbaa !29
  %11 = getelementptr inbounds nuw i8, ptr %0, i64 60
  store i32 0, ptr %11, align 4, !tbaa !30
  %12 = getelementptr inbounds nuw i8, ptr %0, i64 64
  store ptr %6, ptr %12, align 8, !tbaa !31
  %13 = getelementptr inbounds nuw i8, ptr %0, i64 72
  %14 = getelementptr inbounds nuw i8, ptr %0, i64 120
  store ptr %14, ptr %13, align 8, !tbaa !32
  %15 = getelementptr inbounds nuw i8, ptr %0, i64 80
  store i64 1, ptr %15, align 8, !tbaa !33
  %16 = getelementptr inbounds nuw i8, ptr %0, i64 88
  %17 = getelementptr inbounds nuw i8, ptr %0, i64 104
  tail call void @llvm.memset.p0.i64(ptr noundef nonnull align 8 dereferenceable(16) %16, i8 0, i64 16, i1 false)
  store float 1.000000e+00, ptr %17, align 8, !tbaa !34
  %18 = getelementptr inbounds nuw i8, ptr %0, i64 112
  tail call void @llvm.memset.p0.i64(ptr noundef nonnull align 8 dereferenceable(16) %18, i8 0, i64 16, i1 false)
  ret void
}